target datalayout = "e-m:e-p270:32:32-p271:32:32-p272:64:64-i64:64-i128:128-f80:128-n8:16:32:64-S128"
target triple = "x86_64-pc-linux-gnu"

%struct.BackendGlobalData = type <{ ptr, ptr, i8, i8, i8, i8, i8, i8, i8, i8, i8, [3 x i8], i32, ptr, ptr, ptr, ptr, ptr, ptr, ptr, ptr, ptr, ptr, ptr, ptr, ptr, i32, %struct.jvmtiCapabilities, i8, [3 x i8], %struct.jvmtiEventCallbacks, ptr, ptr, ptr, ptr, ptr, ptr, ptr, i32, [4 x i8], ptr, i64, i32, [4 x i8], ptr, i32, i32, i8, i8, [6 x i8] }>
%struct.jvmtiCapabilities = type { i64, i64 }
%struct.jvmtiEventCallbacks = type { ptr, ptr, ptr, ptr, ptr, ptr, ptr, ptr, ptr, ptr, ptr, ptr, ptr, ptr, ptr, ptr, ptr, ptr, ptr, ptr, ptr, ptr, ptr, ptr, ptr, ptr, ptr, ptr, ptr, ptr, ptr, ptr, ptr, ptr, ptr, ptr, ptr, ptr, ptr }
%struct.EventInfo = type { i32, ptr, i8, ptr, ptr, i64, ptr, %union.anon }
%union.anon = type { %struct.anon.0 }
%struct.anon.0 = type { ptr, ptr, i8, %union.jvalue }
%union.jvalue = type { i64 }
%struct.anon.1 = type { ptr, ptr, i64 }

@stderr = external global ptr, align 8
@.str = private unnamed_addr constant [17 x i8] c"JDWP exit error \00", align 1
@.str.1 = private unnamed_addr constant [2 x i8] c"\0A\00", align 1
@.str.2 = private unnamed_addr constant [19 x i8] c"%s(%d): %s [%s:%d]\00", align 1
@.str.4 = private unnamed_addr constant [55 x i8] c"src/jdk.jdwp.agent/share/native/libjdwp/eventHandler.c\00", align 1
@gdata = external global ptr, align 8
@.str.6 = private unnamed_addr constant [42 x i8] c"Can't get jclass for a methodID, invalid?\00", align 1
@active_callbacks = internal global i32 0, align 4
@vm_death_callback_active = internal global i8 0, align 1
@callbackLock = internal global ptr null, align 8
@callbackBlock = internal global ptr null, align 8
@.str.25 = private unnamed_addr constant [5 x i8] c"MISC\00", align 1
@.str.28 = private unnamed_addr constant [3 x i8] c"CB\00", align 1
@.str.30 = private unnamed_addr constant [35 x i8] c"Problems tracking active callbacks\00", align 1
@.str.43 = private unnamed_addr constant [23 x i8] c"cbException: thread=%p\00", align 1
@.str.44 = private unnamed_addr constant [16 x i8] c"END cbException\00", align 1

; Function Attrs: nounwind uwtable
define hidden ptr @getMethodClass(ptr noundef %0, ptr noundef %1) #0 {
  %3 = alloca ptr, align 8
  %4 = alloca ptr, align 8
  %5 = alloca ptr, align 8
  %6 = alloca ptr, align 8
  %7 = alloca i32, align 4
  store ptr %0, ptr %4, align 8
  store ptr %1, ptr %5, align 8
  store ptr null, ptr %6, align 8
  %8 = load ptr, ptr %5, align 8
  %9 = icmp eq ptr %8, null
  br i1 %9, label %10, label %11

10:                                               ; preds = %2
  store ptr null, ptr %3, align 8
  br label %24

11:                                               ; preds = %2
  %12 = load ptr, ptr %5, align 8
  %13 = call i32 @methodClass(ptr noundef %12, ptr noundef %6)
  store i32 %13, ptr %7, align 4
  %14 = load i32, ptr %7, align 4
  %15 = icmp ne i32 %14, 0
  br i1 %15, label %16, label %22

16:                                               ; preds = %11
  %17 = load ptr, ptr @stderr, align 8
  %18 = load i32, ptr %7, align 4
  %19 = call ptr @jvmtiErrorText(i32 noundef %18)
  %20 = load i32, ptr %7, align 4
  call void (ptr, ptr, ptr, ptr, ...) @print_message(ptr noundef %17, ptr noundef @.str, ptr noundef @.str.1, ptr noundef @.str.2, ptr noundef %19, i32 noundef %20, ptr noundef @.str.6, ptr noundef @.str.4, i32 noundef 728)
  %21 = load i32, ptr %7, align 4
  call void @debugInit_exit(i32 noundef %21, ptr noundef @.str.6)
  store ptr null, ptr %3, align 8
  br label %24

22:                                               ; preds = %11
  %23 = load ptr, ptr %6, align 8
  store ptr %23, ptr %3, align 8
  br label %24

24:                                               ; preds = %22, %16, %10
  %25 = load ptr, ptr %3, align 8
  ret ptr %25
}

; Function Attrs: nounwind uwtable
define internal void @cbException(ptr noundef %0, ptr noundef %1, ptr noundef %2, ptr noundef %3, i64 noundef %4, ptr noundef %5, ptr noundef %6, i64 noundef %7) #0 {
  %9 = alloca ptr, align 8
  %10 = alloca ptr, align 8
  %11 = alloca ptr, align 8
  %12 = alloca ptr, align 8
  %13 = alloca i64, align 8
  %14 = alloca ptr, align 8
  %15 = alloca ptr, align 8
  %16 = alloca i64, align 8
  %17 = alloca %struct.EventInfo, align 8
  %18 = alloca i8, align 1
  store ptr %0, ptr %9, align 8
  store ptr %1, ptr %10, align 8
  store ptr %2, ptr %11, align 8
  store ptr %3, ptr %12, align 8
  store i64 %4, ptr %13, align 8
  store ptr %5, ptr %14, align 8
  store ptr %6, ptr %15, align 8
  store i64 %7, ptr %16, align 8
  %19 = load ptr, ptr @gdata, align 8
  %20 = getelementptr inbounds %struct.BackendGlobalData, ptr %19, i32 0, i32 38
  %21 = load i32, ptr %20, align 8
  %22 = and i32 %21, 64
  %23 = icmp ne i32 %22, 0
  br i1 %23, label %24, label %26

24:                                               ; preds = %8
  call void @log_message_begin(ptr noundef @.str.28, ptr noundef @.str.4, i32 noundef 814)
  %25 = load ptr, ptr %11, align 8
  call void (ptr, ...) @log_message_end(ptr noundef @.str.43, ptr noundef %25)
  br label %27

26:                                               ; preds = %8
  br label %27

27:                                               ; preds = %26, %24
  store i8 1, ptr %18, align 1
  %28 = load ptr, ptr @callbackLock, align 8
  call void @debugMonitorEnter(ptr noundef %28)
  %29 = load i8, ptr @vm_death_callback_active, align 1
  %30 = icmp ne i8 %29, 0
  br i1 %30, label %31, label %35

31:                                               ; preds = %27
  %32 = load ptr, ptr @callbackLock, align 8
  call void @debugMonitorExit(ptr noundef %32)
  %33 = load ptr, ptr @callbackBlock, align 8
  call void @debugMonitorEnter(ptr noundef %33)
  %34 = load ptr, ptr @callbackBlock, align 8
  call void @debugMonitorExit(ptr noundef %34)
  br label %39

35:                                               ; preds = %27
  %36 = load i32, ptr @active_callbacks, align 4
  %37 = add nsw i32 %36, 1
  store i32 %37, ptr @active_callbacks, align 4
  store i8 0, ptr %18, align 1
  %38 = load ptr, ptr @callbackLock, align 8
  call void @debugMonitorExit(ptr noundef %38)
  br label %39

39:                                               ; preds = %35, %31
  %40 = load i8, ptr %18, align 1
  %41 = icmp ne i8 %40, 0
  br i1 %41, label %96, label %42

42:                                               ; preds = %39
  call void @llvm.memset.p0.i64(ptr align 8 %17, i8 0, i64 88, i1 false)
  %43 = getelementptr inbounds %struct.EventInfo, ptr %17, i32 0, i32 0
  store i32 4, ptr %43, align 8
  %44 = load ptr, ptr %11, align 8
  %45 = getelementptr inbounds %struct.EventInfo, ptr %17, i32 0, i32 1
  store ptr %44, ptr %45, align 8
  %46 = load ptr, ptr %9, align 8
  %47 = load ptr, ptr %12, align 8
  %48 = call ptr @getMethodClass(ptr noundef %46, ptr noundef %47)
  %49 = getelementptr inbounds %struct.EventInfo, ptr %17, i32 0, i32 3
  store ptr %48, ptr %49, align 8
  %50 = load ptr, ptr %12, align 8
  %51 = getelementptr inbounds %struct.EventInfo, ptr %17, i32 0, i32 4
  store ptr %50, ptr %51, align 8
  %52 = load i64, ptr %13, align 8
  %53 = getelementptr inbounds %struct.EventInfo, ptr %17, i32 0, i32 5
  store i64 %52, ptr %53, align 8
  %54 = load ptr, ptr %14, align 8
  %55 = getelementptr inbounds %struct.EventInfo, ptr %17, i32 0, i32 6
  store ptr %54, ptr %55, align 8
  %56 = load ptr, ptr %9, align 8
  %57 = load ptr, ptr %15, align 8
  %58 = call ptr @getMethodClass(ptr noundef %56, ptr noundef %57)
  %59 = getelementptr inbounds %struct.EventInfo, ptr %17, i32 0, i32 7
  %60 = getelementptr inbounds %struct.anon.1, ptr %59, i32 0, i32 0
  store ptr %58, ptr %60, align 8
  %61 = load ptr, ptr %15, align 8
  %62 = getelementptr inbounds %struct.EventInfo, ptr %17, i32 0, i32 7
  %63 = getelementptr inbounds %struct.anon.1, ptr %62, i32 0, i32 1
  store ptr %61, ptr %63, align 8
  %64 = load i64, ptr %16, align 8
  %65 = getelementptr inbounds %struct.EventInfo, ptr %17, i32 0, i32 7
  %66 = getelementptr inbounds %struct.anon.1, ptr %65, i32 0, i32 2
  store i64 %64, ptr %66, align 8
  %67 = load ptr, ptr %10, align 8
  call void @event_callback(ptr noundef %67, ptr noundef %17)
  %68 = load ptr, ptr @callbackLock, align 8
  call void @debugMonitorEnter(ptr noundef %68)
  %69 = load i32, ptr @active_callbacks, align 4
  %70 = add nsw i32 %69, -1
  store i32 %70, ptr @active_callbacks, align 4
  %71 = load i32, ptr @active_callbacks, align 4
  %72 = icmp slt i32 %71, 0
  br i1 %72, label %73, label %76

73:                                               ; preds = %42
  %74 = load ptr, ptr @stderr, align 8
  %75 = call ptr @jvmtiErrorText(i32 noundef 0)
  call void (ptr, ptr, ptr, ptr, ...) @print_message(ptr noundef %74, ptr noundef @.str, ptr noundef @.str.1, ptr noundef @.str.2, ptr noundef %75, i32 noundef 0, ptr noundef @.str.30, ptr noundef @.str.4, i32 noundef 828)
  call void @debugInit_exit(i32 noundef 0, ptr noundef @.str.30)
  br label %76

76:                                               ; preds = %73, %42
  %77 = load i8, ptr @vm_death_callback_active, align 1
  %78 = icmp ne i8 %77, 0
  br i1 %78, label %79, label %88

79:                                               ; preds = %76
  %80 = load i32, ptr @active_callbacks, align 4
  %81 = icmp eq i32 %80, 0
  br i1 %81, label %82, label %84

82:                                               ; preds = %79
  %83 = load ptr, ptr @callbackLock, align 8
  call void @debugMonitorNotifyAll(ptr noundef %83)
  br label %84

84:                                               ; preds = %82, %79
  %85 = load ptr, ptr @callbackLock, align 8
  call void @debugMonitorExit(ptr noundef %85)
  %86 = load ptr, ptr @callbackBlock, align 8
  call void @debugMonitorEnter(ptr noundef %86)
  %87 = load ptr, ptr @callbackBlock, align 8
  call void @debugMonitorExit(ptr noundef %87)
  br label %95

88:                                               ; preds = %76
  %89 = load i32, ptr @active_callbacks, align 4
  %90 = icmp eq i32 %89, 0
  br i1 %90, label %91, label %93

91:                                               ; preds = %88
  %92 = load ptr, ptr @callbackLock, align 8
  call void @debugMonitorNotifyAll(ptr noundef %92)
  br label %93

93:                                               ; preds = %91, %88
  %94 = load ptr, ptr @callbackLock, align 8
  call void @debugMonitorExit(ptr noundef %94)
  br label %95

95:                                               ; preds = %93, %84
  br label %96

96:                                               ; preds = %95, %39
  %97 = load ptr, ptr @gdata, align 8
  %98 = getelementptr inbounds %struct.BackendGlobalData, ptr %97, i32 0, i32 38
  %99 = load i32, ptr %98, align 8
  %100 = and i32 %99, 8
  %101 = icmp ne i32 %100, 0
  br i1 %101, label %102, label %103

102:                                              ; preds = %96
  call void @log_message_begin(ptr noundef @.str.25, ptr noundef @.str.4, i32 noundef 830)
  call void (ptr, ...) @log_message_end(ptr noundef @.str.44)
  br label %104

103:                                              ; preds = %96
  br label %104

104:                                              ; preds = %103, %102
  ret void
}