; Function Attrs: nounwind uwtable
define internal void @cbException(ptr nocapture readnone %0, ptr noundef %1, ptr noundef %2, ptr noundef %3, i64 noundef %4, ptr noundef %5, ptr noundef %6, i64 noundef %7) #0 {
  %9 = alloca ptr, align 8
  %10 = alloca ptr, align 8
  %11 = alloca %struct.EventInfo, align 8
  %12 = load ptr, ptr @gdata, align 8
  %13 = getelementptr inbounds i8, ptr %12, i64 528
  %14 = load i32, ptr %13, align 8
  %15 = and i32 %14, 64
  %.not = icmp eq i32 %15, 0
  br i1 %.not, label %17, label %16

16:                                               ; preds = %8
  tail call void @log_message_begin(ptr noundef nonnull @.str.28, ptr noundef nonnull @.str.4, i32 noundef 814) #6
  tail call void (ptr, ...) @log_message_end(ptr noundef nonnull @.str.43, ptr noundef %2) #6
  br label %17

17:                                               ; preds = %8, %16
  %18 = load ptr, ptr @callbackLock, align 8
  tail call void @debugMonitorEnter(ptr noundef %18) #6
  %.b12 = load i1, ptr @vm_death_callback_active, align 1
  br i1 %.b12, label %.thread, label %22

.thread:                                          ; preds = %17
  %19 = load ptr, ptr @callbackLock, align 8
  tail call void @debugMonitorExit(ptr noundef %19) #6
  %20 = load ptr, ptr @callbackBlock, align 8
  tail call void @debugMonitorEnter(ptr noundef %20) #6
  %21 = load ptr, ptr @callbackBlock, align 8
  tail call void @debugMonitorExit(ptr noundef %21) #6
  br label %72

22:                                               ; preds = %17
  %23 = load i32, ptr @active_callbacks, align 4
  %24 = add nsw i32 %23, 1
  store i32 %24, ptr @active_callbacks, align 4
  %25 = load ptr, ptr @callbackLock, align 8
  tail call void @debugMonitorExit(ptr noundef %25) #6
  call void @llvm.memset.p0.i64(ptr noundef nonnull align 8 dereferenceable(88) %11, i8 0, i64 88, i1 false)
  store i32 4, ptr %11, align 8
  %26 = getelementptr inbounds i8, ptr %11, i64 8
  store ptr %2, ptr %26, align 8
  call void @llvm.lifetime.start.p0(i64 8, ptr nonnull %10)
  store ptr null, ptr %10, align 8
  %27 = icmp eq ptr %3, null
  br i1 %27, label %getMethodClass.exit, label %28

28:                                               ; preds = %22
  %29 = call i32 @methodClass(ptr noundef nonnull %3, ptr noundef nonnull %10) #6
  %.not.i = icmp eq i32 %29, 0
  br i1 %.not.i, label %33, label %30

30:                                               ; preds = %28
  %31 = load ptr, ptr @stderr, align 8
  %32 = call ptr @jvmtiErrorText(i32 noundef %29) #6
  call void (ptr, ptr, ptr, ptr, ...) @print_message(ptr noundef %31, ptr noundef nonnull @.str, ptr noundef nonnull @.str.1, ptr noundef nonnull @.str.2, ptr noundef %32, i32 noundef %29, ptr noundef nonnull @.str.6, ptr noundef nonnull @.str.4, i32 noundef 728) #6
  call void @debugInit_exit(i32 noundef %29, ptr noundef nonnull @.str.6) #6
  br label %getMethodClass.exit

33:                                               ; preds = %28
  %34 = load ptr, ptr %10, align 8
  br label %getMethodClass.exit

getMethodClass.exit:                              ; preds = %22, %30, %33
  %.0.i = phi ptr [ null, %30 ], [ %34, %33 ], [ null, %22 ]
  call void @llvm.lifetime.end.p0(i64 8, ptr nonnull %10)
  %35 = getelementptr inbounds i8, ptr %11, i64 24
  store ptr %.0.i, ptr %35, align 8
  %36 = getelementptr inbounds i8, ptr %11, i64 32
  store ptr %3, ptr %36, align 8
  %37 = getelementptr inbounds i8, ptr %11, i64 40
  store i64 %4, ptr %37, align 8
  %38 = getelementptr inbounds i8, ptr %11, i64 48
  store ptr %5, ptr %38, align 8
  call void @llvm.lifetime.start.p0(i64 8, ptr nonnull %9)
  store ptr null, ptr %9, align 8
  %39 = icmp eq ptr %6, null
  br i1 %39, label %getMethodClass.exit17, label %40

40:                                               ; preds = %getMethodClass.exit
  %41 = call i32 @methodClass(ptr noundef nonnull %6, ptr noundef nonnull %9) #6
  %.not.i15 = icmp eq i32 %41, 0
  br i1 %.not.i15, label %45, label %42

42:                                               ; preds = %40
  %43 = load ptr, ptr @stderr, align 8
  %44 = call ptr @jvmtiErrorText(i32 noundef %41) #6
  call void (ptr, ptr, ptr, ptr, ...) @print_message(ptr noundef %43, ptr noundef nonnull @.str, ptr noundef nonnull @.str.1, ptr noundef nonnull @.str.2, ptr noundef %44, i32 noundef %41, ptr noundef nonnull @.str.6, ptr noundef nonnull @.str.4, i32 noundef 728) #6
  call void @debugInit_exit(i32 noundef %41, ptr noundef nonnull @.str.6) #6
  br label %getMethodClass.exit17

45:                                               ; preds = %40
  %46 = load ptr, ptr %9, align 8
  br label %getMethodClass.exit17

getMethodClass.exit17:                            ; preds = %getMethodClass.exit, %42, %45
  %.0.i16 = phi ptr [ null, %42 ], [ %46, %45 ], [ null, %getMethodClass.exit ]
  call void @llvm.lifetime.end.p0(i64 8, ptr nonnull %9)
  %47 = getelementptr inbounds i8, ptr %11, i64 56
  store ptr %.0.i16, ptr %47, align 8
  %48 = getelementptr inbounds i8, ptr %11, i64 64
  store ptr %6, ptr %48, align 8
  %49 = getelementptr inbounds i8, ptr %11, i64 72
  store i64 %7, ptr %49, align 8
  call fastcc void @event_callback(ptr noundef %1, ptr noundef nonnull %11)
  %50 = load ptr, ptr @callbackLock, align 8
  call void @debugMonitorEnter(ptr noundef %50) #6
  %51 = load i32, ptr @active_callbacks, align 4
  %52 = add nsw i32 %51, -1
  store i32 %52, ptr @active_callbacks, align 4
  %53 = icmp slt i32 %51, 1
  br i1 %53, label %54, label %57

54:                                               ; preds = %getMethodClass.exit17
  %55 = load ptr, ptr @stderr, align 8
  %56 = call ptr @jvmtiErrorText(i32 noundef 0) #6
  call void (ptr, ptr, ptr, ptr, ...) @print_message(ptr noundef %55, ptr noundef nonnull @.str, ptr noundef nonnull @.str.1, ptr noundef nonnull @.str.2, ptr noundef %56, i32 noundef 0, ptr noundef nonnull @.str.30, ptr noundef nonnull @.str.4, i32 noundef 828) #6
  call void @debugInit_exit(i32 noundef 0, ptr noundef nonnull @.str.30) #6
  br label %57

57:                                               ; preds = %54, %getMethodClass.exit17
  %.b = load i1, ptr @vm_death_callback_active, align 1
  %58 = load i32, ptr @active_callbacks, align 4
  %59 = icmp eq i32 %58, 0
  br i1 %.b, label %60, label %67

60:                                               ; preds = %57
  br i1 %59, label %61, label %63

61:                                               ; preds = %60
  %62 = load ptr, ptr @callbackLock, align 8
  call void @debugMonitorNotifyAll(ptr noundef %62) #6
  br label %63

63:                                               ; preds = %61, %60
  %64 = load ptr, ptr @callbackLock, align 8
  call void @debugMonitorExit(ptr noundef %64) #6
  %65 = load ptr, ptr @callbackBlock, align 8
  call void @debugMonitorEnter(ptr noundef %65) #6
  %66 = load ptr, ptr @callbackBlock, align 8
  call void @debugMonitorExit(ptr noundef %66) #6
  br label %72

67:                                               ; preds = %57
  br i1 %59, label %68, label %70

68:                                               ; preds = %67
  %69 = load ptr, ptr @callbackLock, align 8
  call void @debugMonitorNotifyAll(ptr noundef %69) #6
  br label %70

70:                                               ; preds = %68, %67
  %71 = load ptr, ptr @callbackLock, align 8
  call void @debugMonitorExit(ptr noundef %71) #6
  br label %72

72:                                               ; preds = %.thread, %63, %70
  %73 = load ptr, ptr @gdata, align 8
  %74 = getelementptr inbounds i8, ptr %73, i64 528
  %75 = load i32, ptr %74, align 8
  %76 = and i32 %75, 8
  %.not14 = icmp eq i32 %76, 0
  br i1 %.not14, label %78, label %77

77:                                               ; preds = %72
  call void @log_message_begin(ptr noundef nonnull @.str.25, ptr noundef nonnull @.str.4, i32 noundef 830) #6
  call void (ptr, ...) @log_message_end(ptr noundef nonnull @.str.44) #6
  br label %78

78:                                               ; preds = %72, %77
  ret void
}